; Function Attrs: mustprogress nofree nounwind memory(readwrite, inaccessiblemem: write) uwtable
define noundef double @_ZN13sentencepiece10log_domain6LogSumERKSt6vectorIdSaIdEE(ptr nocapture noundef nonnull readonly align 8 dereferenceable(24) %0) local_unnamed_addr #11 {
  %2 = load ptr, ptr %0, align 8
  %3 = getelementptr inbounds i8, ptr %0, i64 8
  %4 = load ptr, ptr %3, align 8
  %5 = icmp eq ptr %2, %4
  br i1 %5, label %.loopexit, label %6

6:                                                ; preds = %1
  %7 = load double, ptr %2, align 8
  %8 = ptrtoint ptr %4 to i64
  %9 = ptrtoint ptr %2 to i64
  %10 = sub i64 %8, %9
  %11 = icmp ugt i64 %10, 8
  br i1 %11, label %.lr.ph, label %.loopexit

.lr.ph:                                           ; preds = %6, %.lr.ph
  %indvars.iv = phi i64 [ %indvars.iv.next, %.lr.ph ], [ 1, %6 ]
  %12 = phi ptr [ %21, %.lr.ph ], [ %2, %6 ]
  %.0912 = phi double [ %19, %.lr.ph ], [ %7, %6 ]
  %13 = getelementptr inbounds double, ptr %12, i64 %indvars.iv
  %14 = load double, ptr %13, align 8
  %15 = fcmp ogt double %.0912, %14
  %.04.i = select i1 %15, double %14, double %.0912
  %.0.i = select i1 %15, double %.0912, double %14
  %16 = fsub double %.04.i, %.0.i
  %17 = tail call double @exp(double noundef %16) #9
  %18 = tail call double @log1p(double noundef %17) #9
  %19 = fadd double %.0.i, %18
  %indvars.iv.next = add nuw nsw i64 %indvars.iv, 1
  %20 = load ptr, ptr %3, align 8
  %21 = load ptr, ptr %0, align 8
  %22 = ptrtoint ptr %20 to i64
  %23 = ptrtoint ptr %21 to i64
  %24 = sub i64 %22, %23
  %25 = ashr exact i64 %24, 3
  %26 = icmp ugt i64 %25, %indvars.iv.next
  br i1 %26, label %.lr.ph, label %.loopexit, !llvm.loop !13

.loopexit:                                        ; preds = %.lr.ph, %6, %1
  %.010 = phi double [ 0xFFEFFFFFFFFFFFFF, %1 ], [ %7, %6 ], [ %19, %.lr.ph ]
  ret double %.010
}